; Function Attrs: mustprogress uwtable
define hidden void @_ZNK4cvc58internal4prop9LearnedDb17toStringDebugTypeB5cxx11ENS_5modes14LearnedLitTypeE(ptr noalias sret(%"class.std::__cxx11::basic_string") align 8 %agg.result, ptr nocapture noundef nonnull readonly align 8 dereferenceable(336) %this, i32 noundef %ltype) local_unnamed_addr #3 align 2 personality ptr @__gxx_personality_v0 {
entry:
  %ss = alloca %"class.std::__cxx11::basic_stringstream", align 8
  call void @_ZNSt7__cxx1118basic_stringstreamIcSt11char_traitsIcESaIcEEC1Ev(ptr noundef nonnull align 8 dereferenceable(128) %ss)
  switch i32 %ltype, label %sw.epilog.i [
    i32 0, label %invoke.cont
    i32 1, label %sw.bb2.i
    i32 2, label %sw.bb3.i
    i32 3, label %sw.bb4.i
    i32 4, label %sw.bb5.i
  ]

sw.bb2.i:                                         ; preds = %entry
  %d_preprocessLits.i = getelementptr inbounds i8, ptr %this, i64 56
  br label %invoke.cont

sw.bb3.i:                                         ; preds = %entry
  %d_inputLits.i = getelementptr inbounds i8, ptr %this, i64 112
  br label %invoke.cont

sw.bb4.i:                                         ; preds = %entry
  %d_solvableLits.i = getelementptr inbounds i8, ptr %this, i64 168
  br label %invoke.cont

sw.bb5.i:                                         ; preds = %entry
  %d_cpropLits.i = getelementptr inbounds i8, ptr %this, i64 224
  br label %invoke.cont

sw.epilog.i:                                      ; preds = %entry
  %d_internalLits.i = getelementptr inbounds i8, ptr %this, i64 280
  br label %invoke.cont

invoke.cont:                                      ; preds = %sw.epilog.i, %sw.bb5.i, %sw.bb4.i, %sw.bb3.i, %sw.bb2.i, %entry
  %retval.0.i = phi ptr [ %d_internalLits.i, %sw.epilog.i ], [ %d_cpropLits.i, %sw.bb5.i ], [ %d_solvableLits.i, %sw.bb4.i ], [ %d_inputLits.i, %sw.bb3.i ], [ %d_preprocessLits.i, %sw.bb2.i ], [ %this, %entry ]
  %d_size.i.i = getelementptr inbounds i8, ptr %retval.0.i, i64 48
  %0 = load i64, ptr %d_size.i.i, align 8
  %cmp.i.i = icmp eq i64 %0, 0
  br i1 %cmp.i.i, label %if.end, label %if.then

if.then:                                          ; preds = %invoke.cont
  %add.ptr = getelementptr inbounds i8, ptr %ss, i64 16
  %call4 = invoke noundef nonnull align 8 dereferenceable(8) ptr @_ZStlsISt11char_traitsIcEERSt13basic_ostreamIcT_ES5_PKc(ptr noundef nonnull align 8 dereferenceable(8) %add.ptr, ptr noundef nonnull @.str)
          to label %invoke.cont3 unwind label %lpad

invoke.cont3:                                     ; preds = %if.then
  %call6 = invoke noundef nonnull align 8 dereferenceable(8) ptr @_ZN4cvc55modeslsERSoNS0_14LearnedLitTypeE(ptr noundef nonnull align 8 dereferenceable(8) %call4, i32 noundef %ltype)
          to label %invoke.cont5 unwind label %lpad

invoke.cont5:                                     ; preds = %invoke.cont3
  %call8 = invoke noundef nonnull align 8 dereferenceable(8) ptr @_ZStlsISt11char_traitsIcEERSt13basic_ostreamIcT_ES5_PKc(ptr noundef nonnull align 8 dereferenceable(8) %call6, ptr noundef nonnull @.str.1)
          to label %invoke.cont9 unwind label %lpad

invoke.cont9:                                     ; preds = %invoke.cont5
  %1 = load i64, ptr %d_size.i.i, align 8
  %call12 = invoke noundef nonnull align 8 dereferenceable(8) ptr @_ZNSolsEm(ptr noundef nonnull align 8 dereferenceable(8) %call8, i64 noundef %1)
          to label %invoke.cont11 unwind label %lpad

invoke.cont11:                                    ; preds = %invoke.cont9
  %call14 = invoke noundef nonnull align 8 dereferenceable(8) ptr @_ZNSolsEPFRSoS_E(ptr noundef nonnull align 8 dereferenceable(8) %call12, ptr noundef nonnull @_ZSt4endlIcSt11char_traitsIcEERSt13basic_ostreamIT_T0_ES6_)
          to label %if.end unwind label %lpad

lpad:                                             ; preds = %if.end, %invoke.cont11, %invoke.cont9, %invoke.cont5, %invoke.cont3, %if.then
  %2 = landingpad { ptr, i32 }
          cleanup
  call void @_ZNSt7__cxx1118basic_stringstreamIcSt11char_traitsIcESaIcEED1Ev(ptr noundef nonnull align 8 dereferenceable(128) %ss) #21
  resume { ptr, i32 } %2

if.end:                                           ; preds = %invoke.cont11, %invoke.cont
  invoke void @_ZNKSt7__cxx1118basic_stringstreamIcSt11char_traitsIcESaIcEE3strEv(ptr sret(%"class.std::__cxx11::basic_string") align 8 %agg.result, ptr noundef nonnull align 8 dereferenceable(128) %ss)
          to label %invoke.cont15 unwind label %lpad

invoke.cont15:                                    ; preds = %if.end
  call void @_ZNSt7__cxx1118basic_stringstreamIcSt11char_traitsIcESaIcEED1Ev(ptr noundef nonnull align 8 dereferenceable(128) %ss) #21
  ret void
}